
R503_ATmegaDriver.elf:     file format elf32-avr

Sections:
Idx Name          Size      VMA       LMA       File off  Algn
  0 .text         00000a16  00000000  00000000  00000094  2**1
                  CONTENTS, ALLOC, LOAD, READONLY, CODE
  1 .data         00000046  00800060  00000a16  00000aaa  2**0
                  CONTENTS, ALLOC, LOAD, DATA
  2 .bss          0000000f  008000a6  008000a6  00000af0  2**0
                  ALLOC
  3 .comment      00000030  00000000  00000000  00000af0  2**0
                  CONTENTS, READONLY
  4 .note.gnu.avr.deviceinfo 0000003c  00000000  00000000  00000b20  2**2
                  CONTENTS, READONLY
  5 .debug_aranges 00000188  00000000  00000000  00000b5c  2**0
                  CONTENTS, READONLY, DEBUGGING
  6 .debug_info   0000228a  00000000  00000000  00000ce4  2**0
                  CONTENTS, READONLY, DEBUGGING
  7 .debug_abbrev 00000b0a  00000000  00000000  00002f6e  2**0
                  CONTENTS, READONLY, DEBUGGING
  8 .debug_line   00001049  00000000  00000000  00003a78  2**0
                  CONTENTS, READONLY, DEBUGGING
  9 .debug_frame  00000378  00000000  00000000  00004ac4  2**2
                  CONTENTS, READONLY, DEBUGGING
 10 .debug_str    00000887  00000000  00000000  00004e3c  2**0
                  CONTENTS, READONLY, DEBUGGING
 11 .debug_loc    00000e74  00000000  00000000  000056c3  2**0
                  CONTENTS, READONLY, DEBUGGING
 12 .debug_ranges 00000138  00000000  00000000  00006537  2**0
                  CONTENTS, READONLY, DEBUGGING

Disassembly of section .text:

00000000 <__vectors>:
   0:	0c 94 2a 00 	jmp	0x54	; 0x54 <__ctors_end>
   4:	0c 94 47 00 	jmp	0x8e	; 0x8e <__bad_interrupt>
   8:	0c 94 47 00 	jmp	0x8e	; 0x8e <__bad_interrupt>
   c:	0c 94 47 00 	jmp	0x8e	; 0x8e <__bad_interrupt>
  10:	0c 94 47 00 	jmp	0x8e	; 0x8e <__bad_interrupt>
  14:	0c 94 47 00 	jmp	0x8e	; 0x8e <__bad_interrupt>
  18:	0c 94 47 00 	jmp	0x8e	; 0x8e <__bad_interrupt>
  1c:	0c 94 47 00 	jmp	0x8e	; 0x8e <__bad_interrupt>
  20:	0c 94 47 00 	jmp	0x8e	; 0x8e <__bad_interrupt>
  24:	0c 94 47 00 	jmp	0x8e	; 0x8e <__bad_interrupt>
  28:	0c 94 47 00 	jmp	0x8e	; 0x8e <__bad_interrupt>
  2c:	0c 94 47 00 	jmp	0x8e	; 0x8e <__bad_interrupt>
  30:	0c 94 47 00 	jmp	0x8e	; 0x8e <__bad_interrupt>
  34:	0c 94 e1 04 	jmp	0x9c2	; 0x9c2 <__vector_13>
  38:	0c 94 47 00 	jmp	0x8e	; 0x8e <__bad_interrupt>
  3c:	0c 94 47 00 	jmp	0x8e	; 0x8e <__bad_interrupt>
  40:	0c 94 47 00 	jmp	0x8e	; 0x8e <__bad_interrupt>
  44:	0c 94 47 00 	jmp	0x8e	; 0x8e <__bad_interrupt>
  48:	0c 94 47 00 	jmp	0x8e	; 0x8e <__bad_interrupt>
  4c:	0c 94 47 00 	jmp	0x8e	; 0x8e <__bad_interrupt>
  50:	0c 94 47 00 	jmp	0x8e	; 0x8e <__bad_interrupt>

00000054 <__ctors_end>:
  54:	11 24       	eor	r1, r1
  56:	1f be       	out	0x3f, r1	; 63
  58:	cf e5       	ldi	r28, 0x5F	; 95
  5a:	d8 e0       	ldi	r29, 0x08	; 8
  5c:	de bf       	out	0x3e, r29	; 62
  5e:	cd bf       	out	0x3d, r28	; 61

00000060 <__do_copy_data>:
  60:	10 e0       	ldi	r17, 0x00	; 0
  62:	a0 e6       	ldi	r26, 0x60	; 96
  64:	b0 e0       	ldi	r27, 0x00	; 0
  66:	e6 e1       	ldi	r30, 0x16	; 22
  68:	fa e0       	ldi	r31, 0x0A	; 10
  6a:	02 c0       	rjmp	.+4      	; 0x70 <__do_copy_data+0x10>
  6c:	05 90       	lpm	r0, Z+
  6e:	0d 92       	st	X+, r0
  70:	a6 3a       	cpi	r26, 0xA6	; 166
  72:	b1 07       	cpc	r27, r17
  74:	d9 f7       	brne	.-10     	; 0x6c <__do_copy_data+0xc>

00000076 <__do_clear_bss>:
  76:	20 e0       	ldi	r18, 0x00	; 0
  78:	a6 ea       	ldi	r26, 0xA6	; 166
  7a:	b0 e0       	ldi	r27, 0x00	; 0
  7c:	01 c0       	rjmp	.+2      	; 0x80 <.do_clear_bss_start>

0000007e <.do_clear_bss_loop>:
  7e:	1d 92       	st	X+, r1

00000080 <.do_clear_bss_start>:
  80:	a5 3b       	cpi	r26, 0xB5	; 181
  82:	b2 07       	cpc	r27, r18
  84:	e1 f7       	brne	.-8      	; 0x7e <.do_clear_bss_loop>
  86:	0e 94 49 00 	call	0x92	; 0x92 <main>
  8a:	0c 94 09 05 	jmp	0xa12	; 0xa12 <_exit>

0000008e <__bad_interrupt>:
  8e:	0c 94 00 00 	jmp	0	; 0x0 <__vectors>

00000092 <main>:
#include "FingerPrint_Interface.h"
#include "util\delay.h" 

int main(void)
{  
	H_Lcd_Void_LCDInit();
  92:	0e 94 52 01 	call	0x2a4	; 0x2a4 <H_Lcd_Void_LCDInit>
	UART_Init(); 
  96:	0e 94 c6 04 	call	0x98c	; 0x98c <UART_Init>
	UART_receiveByteAsynchCallBack(StoreAckBytes);   
  9a:	82 ef       	ldi	r24, 0xF2	; 242
  9c:	92 e0       	ldi	r25, 0x02	; 2
  9e:	0e 94 dc 04 	call	0x9b8	; 0x9b8 <UART_receiveByteAsynchCallBack>
	u8 FingerPrintAddress = 10;  
	sei ();
  a2:	78 94       	sei
	/*******************************************		Starting with an AURA Wink (;				********************/
	FingerPS_AuraLedConfig(); 
  a4:	0e 94 d8 01 	call	0x3b0	; 0x3b0 <FingerPS_AuraLedConfig>
	H_Lcd_Void_LCDGoTo(0,0);
  a8:	60 e0       	ldi	r22, 0x00	; 0
  aa:	80 e0       	ldi	r24, 0x00	; 0
  ac:	0e 94 94 01 	call	0x328	; 0x328 <H_Lcd_Void_LCDGoTo>
	H_Lcd_Void_LCDWriteString((u8*)"PUT  FINGER TO SCAN");
  b0:	80 e6       	ldi	r24, 0x60	; 96
  b2:	90 e0       	ldi	r25, 0x00	; 0
  b4:	0e 94 7d 01 	call	0x2fa	; 0x2fa <H_Lcd_Void_LCDWriteString>
	#else
		//round up by default
		__ticks_dc = (uint32_t)(ceil(fabs(__tmp)));
	#endif

	__builtin_avr_delay_cycles(__ticks_dc);
  b8:	2f ef       	ldi	r18, 0xFF	; 255
  ba:	8f e4       	ldi	r24, 0x4F	; 79
  bc:	93 ec       	ldi	r25, 0xC3	; 195
  be:	21 50       	subi	r18, 0x01	; 1
  c0:	80 40       	sbci	r24, 0x00	; 0
  c2:	90 40       	sbci	r25, 0x00	; 0
  c4:	e1 f7       	brne	.-8      	; 0xbe <main+0x2c>
  c6:	00 c0       	rjmp	.+0      	; 0xc8 <main+0x36>
  c8:	00 00       	nop
	_delay_ms(4000); /*Delay to get the finger scan*/ 
	/******************************************		Here we are Setting a New Finger Print		********************/ 
	FingerPS_SetNewFingerPrint (FingerPrintAddress); 
  ca:	8a e0       	ldi	r24, 0x0A	; 10
  cc:	90 e0       	ldi	r25, 0x00	; 0
  ce:	0e 94 0c 03 	call	0x618	; 0x618 <FingerPS_SetNewFingerPrint>
	H_Lcd_Void_LCDClear(); 
  d2:	0e 94 90 01 	call	0x320	; 0x320 <H_Lcd_Void_LCDClear>
	H_Lcd_Void_LCDWriteString((u8*)"NEW FINGER SAVED");
  d6:	84 e7       	ldi	r24, 0x74	; 116
  d8:	90 e0       	ldi	r25, 0x00	; 0
  da:	0e 94 7d 01 	call	0x2fa	; 0x2fa <H_Lcd_Void_LCDWriteString>
  de:	2f ef       	ldi	r18, 0xFF	; 255
  e0:	8b e7       	ldi	r24, 0x7B	; 123
  e2:	92 e9       	ldi	r25, 0x92	; 146
  e4:	21 50       	subi	r18, 0x01	; 1
  e6:	80 40       	sbci	r24, 0x00	; 0
  e8:	90 40       	sbci	r25, 0x00	; 0
  ea:	e1 f7       	brne	.-8      	; 0xe4 <main+0x52>
  ec:	00 c0       	rjmp	.+0      	; 0xee <main+0x5c>
  ee:	00 00       	nop
	_delay_ms(3000); 
	/******************************************		Check a One to One Match					********************/ 
	H_Lcd_Void_LCDClear(); 
  f0:	0e 94 90 01 	call	0x320	; 0x320 <H_Lcd_Void_LCDClear>
	H_Lcd_Void_LCDWriteString((u8*)"PUT FING TO CH MATCH");
  f4:	85 e8       	ldi	r24, 0x85	; 133
  f6:	90 e0       	ldi	r25, 0x00	; 0
  f8:	0e 94 7d 01 	call	0x2fa	; 0x2fa <H_Lcd_Void_LCDWriteString>
	if (FingerPS_CheckOneToOneMatch(FingerPrintAddress) == MATCHED){ 
  fc:	8a e0       	ldi	r24, 0x0A	; 10
  fe:	90 e0       	ldi	r25, 0x00	; 0
 100:	0e 94 6e 03 	call	0x6dc	; 0x6dc <FingerPS_CheckOneToOneMatch>
 104:	81 30       	cpi	r24, 0x01	; 1
 106:	39 f4       	brne	.+14     	; 0x116 <main+0x84>
			H_Lcd_Void_LCDClear();
 108:	0e 94 90 01 	call	0x320	; 0x320 <H_Lcd_Void_LCDClear>
			H_Lcd_Void_LCDWriteString((u8*)"MATCHED"); 
 10c:	8e e9       	ldi	r24, 0x9E	; 158
 10e:	90 e0       	ldi	r25, 0x00	; 0
 110:	0e 94 7d 01 	call	0x2fa	; 0x2fa <H_Lcd_Void_LCDWriteString>
 114:	06 c0       	rjmp	.+12     	; 0x122 <main+0x90>
		}
	else {
			H_Lcd_Void_LCDClear();
 116:	0e 94 90 01 	call	0x320	; 0x320 <H_Lcd_Void_LCDClear>
			H_Lcd_Void_LCDWriteString((u8*)"NOT MATCHED");		
 11a:	8a e9       	ldi	r24, 0x9A	; 154
 11c:	90 e0       	ldi	r25, 0x00	; 0
 11e:	0e 94 7d 01 	call	0x2fa	; 0x2fa <H_Lcd_Void_LCDWriteString>
 122:	ff cf       	rjmp	.-2      	; 0x122 <main+0x90>

00000124 <H_Lcd_Void_LCDWriteCharacter>:

	while(Local_S8_Counter > 0)
	{
		H_Lcd_Void_LCDWriteCharacter(Local_U8_Arr[--Local_S8_Counter] + 48);
	}
}
 124:	cf 93       	push	r28
 126:	c8 2f       	mov	r28, r24
 128:	61 e0       	ldi	r22, 0x01	; 1
 12a:	8d e0       	ldi	r24, 0x0D	; 13
 12c:	0e 94 3d 04 	call	0x87a	; 0x87a <M_DIO_Void_SetPinValue>
 130:	c4 fb       	bst	r28, 4
 132:	66 27       	eor	r22, r22
 134:	60 f9       	bld	r22, 0
 136:	84 e1       	ldi	r24, 0x14	; 20
 138:	0e 94 3d 04 	call	0x87a	; 0x87a <M_DIO_Void_SetPinValue>
 13c:	c5 fb       	bst	r28, 5
 13e:	66 27       	eor	r22, r22
 140:	60 f9       	bld	r22, 0
 142:	85 e1       	ldi	r24, 0x15	; 21
 144:	0e 94 3d 04 	call	0x87a	; 0x87a <M_DIO_Void_SetPinValue>
 148:	c6 fb       	bst	r28, 6
 14a:	66 27       	eor	r22, r22
 14c:	60 f9       	bld	r22, 0
 14e:	86 e1       	ldi	r24, 0x16	; 22
 150:	0e 94 3d 04 	call	0x87a	; 0x87a <M_DIO_Void_SetPinValue>
 154:	6c 2f       	mov	r22, r28
 156:	66 1f       	adc	r22, r22
 158:	66 27       	eor	r22, r22
 15a:	66 1f       	adc	r22, r22
 15c:	88 e1       	ldi	r24, 0x18	; 24
 15e:	0e 94 3d 04 	call	0x87a	; 0x87a <M_DIO_Void_SetPinValue>
 162:	61 e0       	ldi	r22, 0x01	; 1
 164:	8c e0       	ldi	r24, 0x0C	; 12
 166:	0e 94 3d 04 	call	0x87a	; 0x87a <M_DIO_Void_SetPinValue>
 16a:	8f e9       	ldi	r24, 0x9F	; 159
 16c:	9f e0       	ldi	r25, 0x0F	; 15
 16e:	01 97       	sbiw	r24, 0x01	; 1
 170:	f1 f7       	brne	.-4      	; 0x16e <H_Lcd_Void_LCDWriteCharacter+0x4a>
 172:	00 c0       	rjmp	.+0      	; 0x174 <H_Lcd_Void_LCDWriteCharacter+0x50>
 174:	00 00       	nop
 176:	60 e0       	ldi	r22, 0x00	; 0
 178:	8c e0       	ldi	r24, 0x0C	; 12
 17a:	0e 94 3d 04 	call	0x87a	; 0x87a <M_DIO_Void_SetPinValue>
 17e:	8f e9       	ldi	r24, 0x9F	; 159
 180:	9f e0       	ldi	r25, 0x0F	; 15
 182:	01 97       	sbiw	r24, 0x01	; 1
 184:	f1 f7       	brne	.-4      	; 0x182 <H_Lcd_Void_LCDWriteCharacter+0x5e>
 186:	00 c0       	rjmp	.+0      	; 0x188 <H_Lcd_Void_LCDWriteCharacter+0x64>
 188:	00 00       	nop
 18a:	6c 2f       	mov	r22, r28
 18c:	61 70       	andi	r22, 0x01	; 1
 18e:	84 e1       	ldi	r24, 0x14	; 20
 190:	0e 94 3d 04 	call	0x87a	; 0x87a <M_DIO_Void_SetPinValue>
 194:	c1 fb       	bst	r28, 1
 196:	66 27       	eor	r22, r22
 198:	60 f9       	bld	r22, 0
 19a:	85 e1       	ldi	r24, 0x15	; 21
 19c:	0e 94 3d 04 	call	0x87a	; 0x87a <M_DIO_Void_SetPinValue>
 1a0:	c2 fb       	bst	r28, 2
 1a2:	66 27       	eor	r22, r22
 1a4:	60 f9       	bld	r22, 0
 1a6:	86 e1       	ldi	r24, 0x16	; 22
 1a8:	0e 94 3d 04 	call	0x87a	; 0x87a <M_DIO_Void_SetPinValue>
 1ac:	c3 fb       	bst	r28, 3
 1ae:	66 27       	eor	r22, r22
 1b0:	60 f9       	bld	r22, 0
 1b2:	88 e1       	ldi	r24, 0x18	; 24
 1b4:	0e 94 3d 04 	call	0x87a	; 0x87a <M_DIO_Void_SetPinValue>
 1b8:	61 e0       	ldi	r22, 0x01	; 1
 1ba:	8c e0       	ldi	r24, 0x0C	; 12
 1bc:	0e 94 3d 04 	call	0x87a	; 0x87a <M_DIO_Void_SetPinValue>
 1c0:	8f e9       	ldi	r24, 0x9F	; 159
 1c2:	9f e0       	ldi	r25, 0x0F	; 15
 1c4:	01 97       	sbiw	r24, 0x01	; 1
 1c6:	f1 f7       	brne	.-4      	; 0x1c4 <H_Lcd_Void_LCDWriteCharacter+0xa0>
 1c8:	00 c0       	rjmp	.+0      	; 0x1ca <H_Lcd_Void_LCDWriteCharacter+0xa6>
 1ca:	00 00       	nop
 1cc:	60 e0       	ldi	r22, 0x00	; 0
 1ce:	8c e0       	ldi	r24, 0x0C	; 12
 1d0:	0e 94 3d 04 	call	0x87a	; 0x87a <M_DIO_Void_SetPinValue>
 1d4:	8f e1       	ldi	r24, 0x1F	; 31
 1d6:	9e e4       	ldi	r25, 0x4E	; 78
 1d8:	01 97       	sbiw	r24, 0x01	; 1
 1da:	f1 f7       	brne	.-4      	; 0x1d8 <H_Lcd_Void_LCDWriteCharacter+0xb4>
 1dc:	00 c0       	rjmp	.+0      	; 0x1de <H_Lcd_Void_LCDWriteCharacter+0xba>
 1de:	00 00       	nop
 1e0:	cf 91       	pop	r28
 1e2:	08 95       	ret

000001e4 <H_Lcd_Void_LCDWriteCommand>:
 1e4:	cf 93       	push	r28
 1e6:	c8 2f       	mov	r28, r24
 1e8:	60 e0       	ldi	r22, 0x00	; 0
 1ea:	8d e0       	ldi	r24, 0x0D	; 13
 1ec:	0e 94 3d 04 	call	0x87a	; 0x87a <M_DIO_Void_SetPinValue>
 1f0:	c4 fb       	bst	r28, 4
 1f2:	66 27       	eor	r22, r22
 1f4:	60 f9       	bld	r22, 0
 1f6:	84 e1       	ldi	r24, 0x14	; 20
 1f8:	0e 94 3d 04 	call	0x87a	; 0x87a <M_DIO_Void_SetPinValue>
 1fc:	c5 fb       	bst	r28, 5
 1fe:	66 27       	eor	r22, r22
 200:	60 f9       	bld	r22, 0
 202:	85 e1       	ldi	r24, 0x15	; 21
 204:	0e 94 3d 04 	call	0x87a	; 0x87a <M_DIO_Void_SetPinValue>
 208:	c6 fb       	bst	r28, 6
 20a:	66 27       	eor	r22, r22
 20c:	60 f9       	bld	r22, 0
 20e:	86 e1       	ldi	r24, 0x16	; 22
 210:	0e 94 3d 04 	call	0x87a	; 0x87a <M_DIO_Void_SetPinValue>
 214:	6c 2f       	mov	r22, r28
 216:	66 1f       	adc	r22, r22
 218:	66 27       	eor	r22, r22
 21a:	66 1f       	adc	r22, r22
 21c:	88 e1       	ldi	r24, 0x18	; 24
 21e:	0e 94 3d 04 	call	0x87a	; 0x87a <M_DIO_Void_SetPinValue>
 222:	61 e0       	ldi	r22, 0x01	; 1
 224:	8c e0       	ldi	r24, 0x0C	; 12
 226:	0e 94 3d 04 	call	0x87a	; 0x87a <M_DIO_Void_SetPinValue>
 22a:	8f e9       	ldi	r24, 0x9F	; 159
 22c:	9f e0       	ldi	r25, 0x0F	; 15
 22e:	01 97       	sbiw	r24, 0x01	; 1
 230:	f1 f7       	brne	.-4      	; 0x22e <H_Lcd_Void_LCDWriteCommand+0x4a>
 232:	00 c0       	rjmp	.+0      	; 0x234 <H_Lcd_Void_LCDWriteCommand+0x50>
 234:	00 00       	nop
 236:	60 e0       	ldi	r22, 0x00	; 0
 238:	8c e0       	ldi	r24, 0x0C	; 12
 23a:	0e 94 3d 04 	call	0x87a	; 0x87a <M_DIO_Void_SetPinValue>
 23e:	8f e9       	ldi	r24, 0x9F	; 159
 240:	9f e0       	ldi	r25, 0x0F	; 15
 242:	01 97       	sbiw	r24, 0x01	; 1
 244:	f1 f7       	brne	.-4      	; 0x242 <H_Lcd_Void_LCDWriteCommand+0x5e>
 246:	00 c0       	rjmp	.+0      	; 0x248 <H_Lcd_Void_LCDWriteCommand+0x64>
 248:	00 00       	nop
 24a:	6c 2f       	mov	r22, r28
 24c:	61 70       	andi	r22, 0x01	; 1
 24e:	84 e1       	ldi	r24, 0x14	; 20
 250:	0e 94 3d 04 	call	0x87a	; 0x87a <M_DIO_Void_SetPinValue>
 254:	c1 fb       	bst	r28, 1
 256:	66 27       	eor	r22, r22
 258:	60 f9       	bld	r22, 0
 25a:	85 e1       	ldi	r24, 0x15	; 21
 25c:	0e 94 3d 04 	call	0x87a	; 0x87a <M_DIO_Void_SetPinValue>
 260:	c2 fb       	bst	r28, 2
 262:	66 27       	eor	r22, r22
 264:	60 f9       	bld	r22, 0
 266:	86 e1       	ldi	r24, 0x16	; 22
 268:	0e 94 3d 04 	call	0x87a	; 0x87a <M_DIO_Void_SetPinValue>
 26c:	c3 fb       	bst	r28, 3
 26e:	66 27       	eor	r22, r22
 270:	60 f9       	bld	r22, 0
 272:	88 e1       	ldi	r24, 0x18	; 24
 274:	0e 94 3d 04 	call	0x87a	; 0x87a <M_DIO_Void_SetPinValue>
 278:	61 e0       	ldi	r22, 0x01	; 1
 27a:	8c e0       	ldi	r24, 0x0C	; 12
 27c:	0e 94 3d 04 	call	0x87a	; 0x87a <M_DIO_Void_SetPinValue>
 280:	8f e9       	ldi	r24, 0x9F	; 159
 282:	9f e0       	ldi	r25, 0x0F	; 15
 284:	01 97       	sbiw	r24, 0x01	; 1
 286:	f1 f7       	brne	.-4      	; 0x284 <H_Lcd_Void_LCDWriteCommand+0xa0>
 288:	00 c0       	rjmp	.+0      	; 0x28a <H_Lcd_Void_LCDWriteCommand+0xa6>
 28a:	00 00       	nop
 28c:	60 e0       	ldi	r22, 0x00	; 0
 28e:	8c e0       	ldi	r24, 0x0C	; 12
 290:	0e 94 3d 04 	call	0x87a	; 0x87a <M_DIO_Void_SetPinValue>
 294:	8f e1       	ldi	r24, 0x1F	; 31
 296:	9e e4       	ldi	r25, 0x4E	; 78
 298:	01 97       	sbiw	r24, 0x01	; 1
 29a:	f1 f7       	brne	.-4      	; 0x298 <H_Lcd_Void_LCDWriteCommand+0xb4>
 29c:	00 c0       	rjmp	.+0      	; 0x29e <H_Lcd_Void_LCDWriteCommand+0xba>
 29e:	00 00       	nop
 2a0:	cf 91       	pop	r28
 2a2:	08 95       	ret

000002a4 <H_Lcd_Void_LCDInit>:
 2a4:	61 e0       	ldi	r22, 0x01	; 1
 2a6:	84 e1       	ldi	r24, 0x14	; 20
 2a8:	0e 94 b4 03 	call	0x768	; 0x768 <M_DIO_Void_SetPinDirection>
 2ac:	61 e0       	ldi	r22, 0x01	; 1
 2ae:	85 e1       	ldi	r24, 0x15	; 21
 2b0:	0e 94 b4 03 	call	0x768	; 0x768 <M_DIO_Void_SetPinDirection>
 2b4:	61 e0       	ldi	r22, 0x01	; 1
 2b6:	86 e1       	ldi	r24, 0x16	; 22
 2b8:	0e 94 b4 03 	call	0x768	; 0x768 <M_DIO_Void_SetPinDirection>
 2bc:	61 e0       	ldi	r22, 0x01	; 1
 2be:	88 e1       	ldi	r24, 0x18	; 24
 2c0:	0e 94 b4 03 	call	0x768	; 0x768 <M_DIO_Void_SetPinDirection>
 2c4:	61 e0       	ldi	r22, 0x01	; 1
 2c6:	8d e0       	ldi	r24, 0x0D	; 13
 2c8:	0e 94 b4 03 	call	0x768	; 0x768 <M_DIO_Void_SetPinDirection>
 2cc:	61 e0       	ldi	r22, 0x01	; 1
 2ce:	8c e0       	ldi	r24, 0x0C	; 12
 2d0:	0e 94 b4 03 	call	0x768	; 0x768 <M_DIO_Void_SetPinDirection>
 2d4:	83 e3       	ldi	r24, 0x33	; 51
 2d6:	0e 94 f2 00 	call	0x1e4	; 0x1e4 <H_Lcd_Void_LCDWriteCommand>
 2da:	82 e3       	ldi	r24, 0x32	; 50
 2dc:	0e 94 f2 00 	call	0x1e4	; 0x1e4 <H_Lcd_Void_LCDWriteCommand>
 2e0:	88 e2       	ldi	r24, 0x28	; 40
 2e2:	0e 94 f2 00 	call	0x1e4	; 0x1e4 <H_Lcd_Void_LCDWriteCommand>
 2e6:	8c e0       	ldi	r24, 0x0C	; 12
 2e8:	0e 94 f2 00 	call	0x1e4	; 0x1e4 <H_Lcd_Void_LCDWriteCommand>
 2ec:	82 e0       	ldi	r24, 0x02	; 2
 2ee:	0e 94 f2 00 	call	0x1e4	; 0x1e4 <H_Lcd_Void_LCDWriteCommand>
 2f2:	81 e0       	ldi	r24, 0x01	; 1
 2f4:	0e 94 f2 00 	call	0x1e4	; 0x1e4 <H_Lcd_Void_LCDWriteCommand>
 2f8:	08 95       	ret

000002fa <H_Lcd_Void_LCDWriteString>:
 2fa:	0f 93       	push	r16
 2fc:	1f 93       	push	r17
 2fe:	cf 93       	push	r28
 300:	8c 01       	movw	r16, r24
 302:	c0 e0       	ldi	r28, 0x00	; 0
 304:	03 c0       	rjmp	.+6      	; 0x30c <H_Lcd_Void_LCDWriteString+0x12>
 306:	0e 94 92 00 	call	0x124	; 0x124 <H_Lcd_Void_LCDWriteCharacter>
 30a:	cf 5f       	subi	r28, 0xFF	; 255
 30c:	f8 01       	movw	r30, r16
 30e:	ec 0f       	add	r30, r28
 310:	f1 1d       	adc	r31, r1
 312:	80 81       	ld	r24, Z
 314:	81 11       	cpse	r24, r1
 316:	f7 cf       	rjmp	.-18     	; 0x306 <H_Lcd_Void_LCDWriteString+0xc>
 318:	cf 91       	pop	r28
 31a:	1f 91       	pop	r17
 31c:	0f 91       	pop	r16
 31e:	08 95       	ret

00000320 <H_Lcd_Void_LCDClear>:
 320:	81 e0       	ldi	r24, 0x01	; 1
 322:	0e 94 f2 00 	call	0x1e4	; 0x1e4 <H_Lcd_Void_LCDWriteCommand>
 326:	08 95       	ret

00000328 <H_Lcd_Void_LCDGoTo>:

/*--------------------------------------------------------------------------------------------*/
/*   FUNCTION BODY   */
/*--------------------------------------------------------------------------------------------*/
void H_Lcd_Void_LCDGoTo(u8 Copy_U8_Row,u8 Copy_U8_Col)
{
 328:	cf 93       	push	r28
 32a:	df 93       	push	r29
 32c:	00 d0       	rcall	.+0      	; 0x32e <H_Lcd_Void_LCDGoTo+0x6>
 32e:	00 d0       	rcall	.+0      	; 0x330 <H_Lcd_Void_LCDGoTo+0x8>
 330:	cd b7       	in	r28, 0x3d	; 61
 332:	de b7       	in	r29, 0x3e	; 62
	u8 Local_U8_Arr [4] = {LCD_R0_COMMAND , LCD_R1_COMMAND , LCD_R2_COMMAND , LCD_R3_COMMAND};
 334:	90 e8       	ldi	r25, 0x80	; 128
 336:	99 83       	std	Y+1, r25	; 0x01
 338:	90 ec       	ldi	r25, 0xC0	; 192
 33a:	9a 83       	std	Y+2, r25	; 0x02
 33c:	94 e9       	ldi	r25, 0x94	; 148
 33e:	9b 83       	std	Y+3, r25	; 0x03
 340:	94 ed       	ldi	r25, 0xD4	; 212
 342:	9c 83       	std	Y+4, r25	; 0x04
	H_Lcd_Void_LCDWriteCommand(Local_U8_Arr[Copy_U8_Row] + Copy_U8_Col);
 344:	e1 e0       	ldi	r30, 0x01	; 1
 346:	f0 e0       	ldi	r31, 0x00	; 0
 348:	ec 0f       	add	r30, r28
 34a:	fd 1f       	adc	r31, r29
 34c:	e8 0f       	add	r30, r24
 34e:	f1 1d       	adc	r31, r1
 350:	80 81       	ld	r24, Z
 352:	86 0f       	add	r24, r22
 354:	0e 94 f2 00 	call	0x1e4	; 0x1e4 <H_Lcd_Void_LCDWriteCommand>
}
 358:	0f 90       	pop	r0
 35a:	0f 90       	pop	r0
 35c:	0f 90       	pop	r0
 35e:	0f 90       	pop	r0
 360:	df 91       	pop	r29
 362:	cf 91       	pop	r28
 364:	08 95       	ret

00000366 <FingerP_send>:
	
	UART_sendByte(NUM_OF_PAGES_TO_SEARCH>>ONE_BYTE_SHIFT);
	UART_sendByte(NUM_OF_PAGES_TO_SEARCH>>NO_BYTE_SHIFT);
	
	UART_sendByte((PCK_ID_COMMAND_PACK+LENGTH_8BYTE+SEARCH_FINGER+CHAR_BUFFER_1+FIRST_PAGE_ID+NUM_OF_PAGES_TO_SEARCH)>>ONE_BYTE_SHIFT);
	UART_sendByte((PCK_ID_COMMAND_PACK+LENGTH_8BYTE+SEARCH_FINGER+CHAR_BUFFER_1+FIRST_PAGE_ID+NUM_OF_PAGES_TO_SEARCH)>>NO_BYTE_SHIFT);
 366:	1f 93       	push	r17
 368:	cf 93       	push	r28
 36a:	df 93       	push	r29
 36c:	18 2f       	mov	r17, r24
 36e:	c6 2f       	mov	r28, r22
 370:	d7 2f       	mov	r29, r23
 372:	8f ee       	ldi	r24, 0xEF	; 239
 374:	0e 94 d6 04 	call	0x9ac	; 0x9ac <UART_sendByte>
 378:	81 e0       	ldi	r24, 0x01	; 1
 37a:	0e 94 d6 04 	call	0x9ac	; 0x9ac <UART_sendByte>
 37e:	8f ef       	ldi	r24, 0xFF	; 255
 380:	0e 94 d6 04 	call	0x9ac	; 0x9ac <UART_sendByte>
 384:	8f ef       	ldi	r24, 0xFF	; 255
 386:	0e 94 d6 04 	call	0x9ac	; 0x9ac <UART_sendByte>
 38a:	8f ef       	ldi	r24, 0xFF	; 255
 38c:	0e 94 d6 04 	call	0x9ac	; 0x9ac <UART_sendByte>
 390:	8f ef       	ldi	r24, 0xFF	; 255
 392:	0e 94 d6 04 	call	0x9ac	; 0x9ac <UART_sendByte>
 396:	81 2f       	mov	r24, r17
 398:	0e 94 d6 04 	call	0x9ac	; 0x9ac <UART_sendByte>
 39c:	8d 2f       	mov	r24, r29
 39e:	0e 94 d6 04 	call	0x9ac	; 0x9ac <UART_sendByte>
 3a2:	8c 2f       	mov	r24, r28
 3a4:	0e 94 d6 04 	call	0x9ac	; 0x9ac <UART_sendByte>
 3a8:	df 91       	pop	r29
 3aa:	cf 91       	pop	r28
 3ac:	1f 91       	pop	r17
 3ae:	08 95       	ret

000003b0 <FingerPS_AuraLedConfig>:
 3b0:	67 e0       	ldi	r22, 0x07	; 7
 3b2:	70 e0       	ldi	r23, 0x00	; 0
 3b4:	81 e0       	ldi	r24, 0x01	; 1
 3b6:	0e 94 b3 01 	call	0x366	; 0x366 <FingerP_send>
 3ba:	85 e3       	ldi	r24, 0x35	; 53
 3bc:	0e 94 d6 04 	call	0x9ac	; 0x9ac <UART_sendByte>
 3c0:	82 e0       	ldi	r24, 0x02	; 2
 3c2:	0e 94 d6 04 	call	0x9ac	; 0x9ac <UART_sendByte>
 3c6:	8f e0       	ldi	r24, 0x0F	; 15
 3c8:	0e 94 d6 04 	call	0x9ac	; 0x9ac <UART_sendByte>
 3cc:	83 e0       	ldi	r24, 0x03	; 3
 3ce:	0e 94 d6 04 	call	0x9ac	; 0x9ac <UART_sendByte>
 3d2:	81 e0       	ldi	r24, 0x01	; 1
 3d4:	0e 94 d6 04 	call	0x9ac	; 0x9ac <UART_sendByte>
 3d8:	80 e0       	ldi	r24, 0x00	; 0
 3da:	0e 94 d6 04 	call	0x9ac	; 0x9ac <UART_sendByte>
 3de:	82 e5       	ldi	r24, 0x52	; 82
 3e0:	0e 94 d6 04 	call	0x9ac	; 0x9ac <UART_sendByte>
 3e4:	08 95       	ret

000003e6 <FingerPS_genImg>:
 3e6:	63 e0       	ldi	r22, 0x03	; 3
 3e8:	70 e0       	ldi	r23, 0x00	; 0
 3ea:	81 e0       	ldi	r24, 0x01	; 1
 3ec:	0e 94 b3 01 	call	0x366	; 0x366 <FingerP_send>
 3f0:	81 e0       	ldi	r24, 0x01	; 1
 3f2:	0e 94 d6 04 	call	0x9ac	; 0x9ac <UART_sendByte>
 3f6:	80 e0       	ldi	r24, 0x00	; 0
 3f8:	0e 94 d6 04 	call	0x9ac	; 0x9ac <UART_sendByte>
 3fc:	85 e0       	ldi	r24, 0x05	; 5
 3fe:	0e 94 d6 04 	call	0x9ac	; 0x9ac <UART_sendByte>
 402:	08 95       	ret

00000404 <FingerPS_convertImg1CharFile>:
 404:	8f ee       	ldi	r24, 0xEF	; 239
 406:	0e 94 d6 04 	call	0x9ac	; 0x9ac <UART_sendByte>
 40a:	81 e0       	ldi	r24, 0x01	; 1
 40c:	0e 94 d6 04 	call	0x9ac	; 0x9ac <UART_sendByte>
 410:	8f ef       	ldi	r24, 0xFF	; 255
 412:	0e 94 d6 04 	call	0x9ac	; 0x9ac <UART_sendByte>
 416:	8f ef       	ldi	r24, 0xFF	; 255
 418:	0e 94 d6 04 	call	0x9ac	; 0x9ac <UART_sendByte>
 41c:	8f ef       	ldi	r24, 0xFF	; 255
 41e:	0e 94 d6 04 	call	0x9ac	; 0x9ac <UART_sendByte>
 422:	8f ef       	ldi	r24, 0xFF	; 255
 424:	0e 94 d6 04 	call	0x9ac	; 0x9ac <UART_sendByte>
 428:	81 e0       	ldi	r24, 0x01	; 1
 42a:	0e 94 d6 04 	call	0x9ac	; 0x9ac <UART_sendByte>
 42e:	80 e0       	ldi	r24, 0x00	; 0
 430:	0e 94 d6 04 	call	0x9ac	; 0x9ac <UART_sendByte>
 434:	84 e0       	ldi	r24, 0x04	; 4
 436:	0e 94 d6 04 	call	0x9ac	; 0x9ac <UART_sendByte>
 43a:	82 e0       	ldi	r24, 0x02	; 2
 43c:	0e 94 d6 04 	call	0x9ac	; 0x9ac <UART_sendByte>
 440:	81 e0       	ldi	r24, 0x01	; 1
 442:	0e 94 d6 04 	call	0x9ac	; 0x9ac <UART_sendByte>
 446:	80 e0       	ldi	r24, 0x00	; 0
 448:	0e 94 d6 04 	call	0x9ac	; 0x9ac <UART_sendByte>
 44c:	88 e0       	ldi	r24, 0x08	; 8
 44e:	0e 94 d6 04 	call	0x9ac	; 0x9ac <UART_sendByte>
 452:	08 95       	ret

00000454 <FingerPS_convertImg2CharFile>:
 454:	8f ee       	ldi	r24, 0xEF	; 239
 456:	0e 94 d6 04 	call	0x9ac	; 0x9ac <UART_sendByte>
 45a:	81 e0       	ldi	r24, 0x01	; 1
 45c:	0e 94 d6 04 	call	0x9ac	; 0x9ac <UART_sendByte>
 460:	8f ef       	ldi	r24, 0xFF	; 255
 462:	0e 94 d6 04 	call	0x9ac	; 0x9ac <UART_sendByte>
 466:	8f ef       	ldi	r24, 0xFF	; 255
 468:	0e 94 d6 04 	call	0x9ac	; 0x9ac <UART_sendByte>
 46c:	8f ef       	ldi	r24, 0xFF	; 255
 46e:	0e 94 d6 04 	call	0x9ac	; 0x9ac <UART_sendByte>
 472:	8f ef       	ldi	r24, 0xFF	; 255
 474:	0e 94 d6 04 	call	0x9ac	; 0x9ac <UART_sendByte>
 478:	81 e0       	ldi	r24, 0x01	; 1
 47a:	0e 94 d6 04 	call	0x9ac	; 0x9ac <UART_sendByte>
 47e:	80 e0       	ldi	r24, 0x00	; 0
 480:	0e 94 d6 04 	call	0x9ac	; 0x9ac <UART_sendByte>
 484:	84 e0       	ldi	r24, 0x04	; 4
 486:	0e 94 d6 04 	call	0x9ac	; 0x9ac <UART_sendByte>
 48a:	82 e0       	ldi	r24, 0x02	; 2
 48c:	0e 94 d6 04 	call	0x9ac	; 0x9ac <UART_sendByte>
 490:	82 e0       	ldi	r24, 0x02	; 2
 492:	0e 94 d6 04 	call	0x9ac	; 0x9ac <UART_sendByte>
 496:	80 e0       	ldi	r24, 0x00	; 0
 498:	0e 94 d6 04 	call	0x9ac	; 0x9ac <UART_sendByte>
 49c:	89 e0       	ldi	r24, 0x09	; 9
 49e:	0e 94 d6 04 	call	0x9ac	; 0x9ac <UART_sendByte>
 4a2:	08 95       	ret

000004a4 <FingerPS_genTemplate>:
 4a4:	8f ee       	ldi	r24, 0xEF	; 239
 4a6:	0e 94 d6 04 	call	0x9ac	; 0x9ac <UART_sendByte>
 4aa:	81 e0       	ldi	r24, 0x01	; 1
 4ac:	0e 94 d6 04 	call	0x9ac	; 0x9ac <UART_sendByte>
 4b0:	8f ef       	ldi	r24, 0xFF	; 255
 4b2:	0e 94 d6 04 	call	0x9ac	; 0x9ac <UART_sendByte>
 4b6:	8f ef       	ldi	r24, 0xFF	; 255
 4b8:	0e 94 d6 04 	call	0x9ac	; 0x9ac <UART_sendByte>
 4bc:	8f ef       	ldi	r24, 0xFF	; 255
 4be:	0e 94 d6 04 	call	0x9ac	; 0x9ac <UART_sendByte>
 4c2:	8f ef       	ldi	r24, 0xFF	; 255
 4c4:	0e 94 d6 04 	call	0x9ac	; 0x9ac <UART_sendByte>
 4c8:	81 e0       	ldi	r24, 0x01	; 1
 4ca:	0e 94 d6 04 	call	0x9ac	; 0x9ac <UART_sendByte>
 4ce:	80 e0       	ldi	r24, 0x00	; 0
 4d0:	0e 94 d6 04 	call	0x9ac	; 0x9ac <UART_sendByte>
 4d4:	83 e0       	ldi	r24, 0x03	; 3
 4d6:	0e 94 d6 04 	call	0x9ac	; 0x9ac <UART_sendByte>
 4da:	85 e0       	ldi	r24, 0x05	; 5
 4dc:	0e 94 d6 04 	call	0x9ac	; 0x9ac <UART_sendByte>
 4e0:	80 e0       	ldi	r24, 0x00	; 0
 4e2:	0e 94 d6 04 	call	0x9ac	; 0x9ac <UART_sendByte>
 4e6:	89 e0       	ldi	r24, 0x09	; 9
 4e8:	0e 94 d6 04 	call	0x9ac	; 0x9ac <UART_sendByte>
 4ec:	08 95       	ret

000004ee <FingerPS_strTemplate>:
 4ee:	cf 93       	push	r28
 4f0:	df 93       	push	r29
 4f2:	ec 01       	movw	r28, r24
 4f4:	66 e0       	ldi	r22, 0x06	; 6
 4f6:	70 e0       	ldi	r23, 0x00	; 0
 4f8:	81 e0       	ldi	r24, 0x01	; 1
 4fa:	0e 94 b3 01 	call	0x366	; 0x366 <FingerP_send>
 4fe:	86 e0       	ldi	r24, 0x06	; 6
 500:	0e 94 d6 04 	call	0x9ac	; 0x9ac <UART_sendByte>
 504:	81 e0       	ldi	r24, 0x01	; 1
 506:	0e 94 d6 04 	call	0x9ac	; 0x9ac <UART_sendByte>
 50a:	8d 2f       	mov	r24, r29
 50c:	0e 94 d6 04 	call	0x9ac	; 0x9ac <UART_sendByte>
 510:	8c 2f       	mov	r24, r28
 512:	0e 94 d6 04 	call	0x9ac	; 0x9ac <UART_sendByte>
 516:	ce 01       	movw	r24, r28
 518:	0e 96       	adiw	r24, 0x0e	; 14
 51a:	89 2f       	mov	r24, r25
 51c:	0e 94 d6 04 	call	0x9ac	; 0x9ac <UART_sendByte>
 520:	8c 2f       	mov	r24, r28
 522:	82 5f       	subi	r24, 0xF2	; 242
 524:	0e 94 d6 04 	call	0x9ac	; 0x9ac <UART_sendByte>
 528:	df 91       	pop	r29
 52a:	cf 91       	pop	r28
 52c:	08 95       	ret

0000052e <FingerPS_LoadCharFile>:
}  
void FingerPS_LoadCharFile(u16 address){
 52e:	cf 93       	push	r28
 530:	df 93       	push	r29
 532:	ec 01       	movw	r28, r24
	UART_sendByte(0xef);
 534:	8f ee       	ldi	r24, 0xEF	; 239
 536:	0e 94 d6 04 	call	0x9ac	; 0x9ac <UART_sendByte>
	UART_sendByte(0x01);
 53a:	81 e0       	ldi	r24, 0x01	; 1
 53c:	0e 94 d6 04 	call	0x9ac	; 0x9ac <UART_sendByte>
	UART_sendByte(0xff);
 540:	8f ef       	ldi	r24, 0xFF	; 255
 542:	0e 94 d6 04 	call	0x9ac	; 0x9ac <UART_sendByte>
	UART_sendByte(0xff);
 546:	8f ef       	ldi	r24, 0xFF	; 255
 548:	0e 94 d6 04 	call	0x9ac	; 0x9ac <UART_sendByte>
	UART_sendByte(0xff);
 54c:	8f ef       	ldi	r24, 0xFF	; 255
 54e:	0e 94 d6 04 	call	0x9ac	; 0x9ac <UART_sendByte>
	UART_sendByte(0xff);
 552:	8f ef       	ldi	r24, 0xFF	; 255
 554:	0e 94 d6 04 	call	0x9ac	; 0x9ac <UART_sendByte>
	UART_sendByte(0x01);
 558:	81 e0       	ldi	r24, 0x01	; 1
 55a:	0e 94 d6 04 	call	0x9ac	; 0x9ac <UART_sendByte>
	UART_sendByte(0x00);
 55e:	80 e0       	ldi	r24, 0x00	; 0
 560:	0e 94 d6 04 	call	0x9ac	; 0x9ac <UART_sendByte>
	UART_sendByte(0x06);
 564:	86 e0       	ldi	r24, 0x06	; 6
 566:	0e 94 d6 04 	call	0x9ac	; 0x9ac <UART_sendByte>
	UART_sendByte(0x07);
 56a:	87 e0       	ldi	r24, 0x07	; 7
 56c:	0e 94 d6 04 	call	0x9ac	; 0x9ac <UART_sendByte>
	UART_sendByte(0x02); /*load in the char file 2*/
 570:	82 e0       	ldi	r24, 0x02	; 2
 572:	0e 94 d6 04 	call	0x9ac	; 0x9ac <UART_sendByte>
	UART_sendByte(address>>ONE_BYTE_SHIFT);
 576:	8d 2f       	mov	r24, r29
 578:	0e 94 d6 04 	call	0x9ac	; 0x9ac <UART_sendByte>
	UART_sendByte(address>>NO_BYTE_SHIFT);
 57c:	8c 2f       	mov	r24, r28
 57e:	0e 94 d6 04 	call	0x9ac	; 0x9ac <UART_sendByte>
	UART_sendByte((0x01+0x00+0x06+0x07+0x02+address)>>ONE_BYTE_SHIFT);
 582:	ce 01       	movw	r24, r28
 584:	40 96       	adiw	r24, 0x10	; 16
 586:	89 2f       	mov	r24, r25
 588:	0e 94 d6 04 	call	0x9ac	; 0x9ac <UART_sendByte>
	UART_sendByte((0x01+0x00+0x06+0x07+0x02+address)>>NO_BYTE_SHIFT);
 58c:	8c 2f       	mov	r24, r28
 58e:	80 5f       	subi	r24, 0xF0	; 240
 590:	0e 94 d6 04 	call	0x9ac	; 0x9ac <UART_sendByte>
} 
 594:	df 91       	pop	r29
 596:	cf 91       	pop	r28
 598:	08 95       	ret

0000059a <FingerPS_match>:
void FingerPS_match(){
	UART_sendByte(0xef);
 59a:	8f ee       	ldi	r24, 0xEF	; 239
 59c:	0e 94 d6 04 	call	0x9ac	; 0x9ac <UART_sendByte>
	UART_sendByte(0x01);
 5a0:	81 e0       	ldi	r24, 0x01	; 1
 5a2:	0e 94 d6 04 	call	0x9ac	; 0x9ac <UART_sendByte>
	UART_sendByte(0xff);
 5a6:	8f ef       	ldi	r24, 0xFF	; 255
 5a8:	0e 94 d6 04 	call	0x9ac	; 0x9ac <UART_sendByte>
	UART_sendByte(0xff);
 5ac:	8f ef       	ldi	r24, 0xFF	; 255
 5ae:	0e 94 d6 04 	call	0x9ac	; 0x9ac <UART_sendByte>
	UART_sendByte(0xff);
 5b2:	8f ef       	ldi	r24, 0xFF	; 255
 5b4:	0e 94 d6 04 	call	0x9ac	; 0x9ac <UART_sendByte>
	UART_sendByte(0xff);
 5b8:	8f ef       	ldi	r24, 0xFF	; 255
 5ba:	0e 94 d6 04 	call	0x9ac	; 0x9ac <UART_sendByte>
	UART_sendByte(0x01);
 5be:	81 e0       	ldi	r24, 0x01	; 1
 5c0:	0e 94 d6 04 	call	0x9ac	; 0x9ac <UART_sendByte>
	UART_sendByte(0x00);
 5c4:	80 e0       	ldi	r24, 0x00	; 0
 5c6:	0e 94 d6 04 	call	0x9ac	; 0x9ac <UART_sendByte>
	UART_sendByte(0x03);
 5ca:	83 e0       	ldi	r24, 0x03	; 3
 5cc:	0e 94 d6 04 	call	0x9ac	; 0x9ac <UART_sendByte>
	UART_sendByte(0x03);
 5d0:	83 e0       	ldi	r24, 0x03	; 3
 5d2:	0e 94 d6 04 	call	0x9ac	; 0x9ac <UART_sendByte>
	UART_sendByte(0x00);
 5d6:	80 e0       	ldi	r24, 0x00	; 0
 5d8:	0e 94 d6 04 	call	0x9ac	; 0x9ac <UART_sendByte>
	UART_sendByte(0x07);
 5dc:	87 e0       	ldi	r24, 0x07	; 7
 5de:	0e 94 d6 04 	call	0x9ac	; 0x9ac <UART_sendByte>
 5e2:	08 95       	ret

000005e4 <StoreAckBytes>:
}
/********************************************** ISR	***************************************/
void StoreAckBytes (u8 RecivedByte){
	static u8 i = 0;
	AckPack [i] = RecivedByte; 
 5e4:	90 91 a6 00 	lds	r25, 0x00A6	; 0x8000a6 <__data_end>
 5e8:	e9 2f       	mov	r30, r25
 5ea:	f0 e0       	ldi	r31, 0x00	; 0
 5ec:	e9 55       	subi	r30, 0x59	; 89
 5ee:	ff 4f       	sbci	r31, 0xFF	; 255
 5f0:	80 83       	st	Z, r24
	if (i==11){
 5f2:	9b 30       	cpi	r25, 0x0B	; 11
 5f4:	19 f4       	brne	.+6      	; 0x5fc <StoreAckBytes+0x18>
		i = 0;
 5f6:	10 92 a6 00 	sts	0x00A6, r1	; 0x8000a6 <__data_end>
 5fa:	08 95       	ret
	}
	else i++;
 5fc:	9f 5f       	subi	r25, 0xFF	; 255
 5fe:	90 93 a6 00 	sts	0x00A6, r25	; 0x8000a6 <__data_end>
 602:	08 95       	ret

00000604 <FingerPS_CheckAck>:
}
/********************************************* FUNCTION TO CHECK THE SUM OF EACH ACKNOWLEDGMENT PACK	***************/
u8 FingerPS_CheckAck (){
	u8 CheckResult;
	if (AckPack[11] == 0x0A){
 604:	80 91 b2 00 	lds	r24, 0x00B2	; 0x8000b2 <AckPack+0xb>
 608:	8a 30       	cpi	r24, 0x0A	; 10
 60a:	21 f4       	brne	.+8      	; 0x614 <FingerPS_CheckAck+0x10>
		CheckResult = true ;
		AckPack [11] = 0x00; 
 60c:	10 92 b2 00 	sts	0x00B2, r1	; 0x8000b2 <AckPack+0xb>
}
/********************************************* FUNCTION TO CHECK THE SUM OF EACH ACKNOWLEDGMENT PACK	***************/
u8 FingerPS_CheckAck (){
	u8 CheckResult;
	if (AckPack[11] == 0x0A){
		CheckResult = true ;
 610:	81 e0       	ldi	r24, 0x01	; 1
 612:	08 95       	ret
		AckPack [11] = 0x00; 
	}
	else{
		CheckResult = false;
 614:	80 e0       	ldi	r24, 0x00	; 0
	}
	return CheckResult;
} 
 616:	08 95       	ret

00000618 <FingerPS_SetNewFingerPrint>:
void FingerPS_SetNewFingerPrint (u16 address){
 618:	cf 93       	push	r28
 61a:	df 93       	push	r29
 61c:	ec 01       	movw	r28, r24
	/*********************************************		FIRST IMAGE GENERATION	******************************************/
	RepeatGenImag1:
	FingerPS_genImg();
 61e:	0e 94 f3 01 	call	0x3e6	; 0x3e6 <FingerPS_genImg>
 622:	2f ef       	ldi	r18, 0xFF	; 255
 624:	81 ee       	ldi	r24, 0xE1	; 225
 626:	94 e0       	ldi	r25, 0x04	; 4
 628:	21 50       	subi	r18, 0x01	; 1
 62a:	80 40       	sbci	r24, 0x00	; 0
 62c:	90 40       	sbci	r25, 0x00	; 0
 62e:	e1 f7       	brne	.-8      	; 0x628 <FingerPS_SetNewFingerPrint+0x10>
 630:	00 c0       	rjmp	.+0      	; 0x632 <FingerPS_SetNewFingerPrint+0x1a>
 632:	00 00       	nop
	_delay_ms(100);
	if (FingerPS_CheckAck() == false) goto RepeatGenImag1; /*WAIT FOR ACK*/
 634:	0e 94 02 03 	call	0x604	; 0x604 <FingerPS_CheckAck>
 638:	88 23       	and	r24, r24
 63a:	89 f3       	breq	.-30     	; 0x61e <FingerPS_SetNewFingerPrint+0x6>
	/*********************************************	FIRST CHARACTER FILE GENERATION	**************************************/
	RepeatConvertFile1:
	FingerPS_convertImg1CharFile();
 63c:	0e 94 02 02 	call	0x404	; 0x404 <FingerPS_convertImg1CharFile>
 640:	2f ef       	ldi	r18, 0xFF	; 255
 642:	81 ee       	ldi	r24, 0xE1	; 225
 644:	94 e0       	ldi	r25, 0x04	; 4
 646:	21 50       	subi	r18, 0x01	; 1
 648:	80 40       	sbci	r24, 0x00	; 0
 64a:	90 40       	sbci	r25, 0x00	; 0
 64c:	e1 f7       	brne	.-8      	; 0x646 <FingerPS_SetNewFingerPrint+0x2e>
 64e:	00 c0       	rjmp	.+0      	; 0x650 <FingerPS_SetNewFingerPrint+0x38>
 650:	00 00       	nop
	_delay_ms(100);
	if (FingerPS_CheckAck() == false) goto RepeatConvertFile1; /*WAIT FOR ACK*/
 652:	0e 94 02 03 	call	0x604	; 0x604 <FingerPS_CheckAck>
 656:	88 23       	and	r24, r24
 658:	89 f3       	breq	.-30     	; 0x63c <FingerPS_SetNewFingerPrint+0x24>
	/*********************************************		SECOND IMAGE GENERATION		**************************************/
	RepeatGenImag2:
	FingerPS_genImg();
 65a:	0e 94 f3 01 	call	0x3e6	; 0x3e6 <FingerPS_genImg>
 65e:	2f ef       	ldi	r18, 0xFF	; 255
 660:	81 ee       	ldi	r24, 0xE1	; 225
 662:	94 e0       	ldi	r25, 0x04	; 4
 664:	21 50       	subi	r18, 0x01	; 1
 666:	80 40       	sbci	r24, 0x00	; 0
 668:	90 40       	sbci	r25, 0x00	; 0
 66a:	e1 f7       	brne	.-8      	; 0x664 <FingerPS_SetNewFingerPrint+0x4c>
 66c:	00 c0       	rjmp	.+0      	; 0x66e <FingerPS_SetNewFingerPrint+0x56>
 66e:	00 00       	nop
	_delay_ms(100);
	if (FingerPS_CheckAck() == false) goto RepeatGenImag2;/*WAIT FOR ACK*/
 670:	0e 94 02 03 	call	0x604	; 0x604 <FingerPS_CheckAck>
 674:	88 23       	and	r24, r24
 676:	89 f3       	breq	.-30     	; 0x65a <FingerPS_SetNewFingerPrint+0x42>
	/*********************************************		SECONED CHAR FILE GENERATED		**********************************/
	RepeatConvertFile2:
	FingerPS_convertImg2CharFile();
 678:	0e 94 2a 02 	call	0x454	; 0x454 <FingerPS_convertImg2CharFile>
 67c:	2f ef       	ldi	r18, 0xFF	; 255
 67e:	81 ee       	ldi	r24, 0xE1	; 225
 680:	94 e0       	ldi	r25, 0x04	; 4
 682:	21 50       	subi	r18, 0x01	; 1
 684:	80 40       	sbci	r24, 0x00	; 0
 686:	90 40       	sbci	r25, 0x00	; 0
 688:	e1 f7       	brne	.-8      	; 0x682 <FingerPS_SetNewFingerPrint+0x6a>
 68a:	00 c0       	rjmp	.+0      	; 0x68c <FingerPS_SetNewFingerPrint+0x74>
 68c:	00 00       	nop
	_delay_ms(100);
	if (FingerPS_CheckAck() == false) goto RepeatConvertFile2;/*WAIT FOR ACK*/
 68e:	0e 94 02 03 	call	0x604	; 0x604 <FingerPS_CheckAck>
 692:	88 23       	and	r24, r24
 694:	89 f3       	breq	.-30     	; 0x678 <FingerPS_SetNewFingerPrint+0x60>
	/********************************************		Generate Tempelate			**********************************/
	FingerPS_genTemplate();
 696:	0e 94 52 02 	call	0x4a4	; 0x4a4 <FingerPS_genTemplate>
 69a:	2f ef       	ldi	r18, 0xFF	; 255
 69c:	89 e6       	ldi	r24, 0x69	; 105
 69e:	98 e1       	ldi	r25, 0x18	; 24
 6a0:	21 50       	subi	r18, 0x01	; 1
 6a2:	80 40       	sbci	r24, 0x00	; 0
 6a4:	90 40       	sbci	r25, 0x00	; 0
 6a6:	e1 f7       	brne	.-8      	; 0x6a0 <FingerPS_SetNewFingerPrint+0x88>
 6a8:	00 c0       	rjmp	.+0      	; 0x6aa <FingerPS_SetNewFingerPrint+0x92>
 6aa:	00 00       	nop
	_delay_ms(500);
	if (FingerPS_CheckAck() == false) goto RepeatGenImag1;/*WAIT FOR ACK*/
 6ac:	0e 94 02 03 	call	0x604	; 0x604 <FingerPS_CheckAck>
 6b0:	88 23       	and	r24, r24
 6b2:	09 f4       	brne	.+2      	; 0x6b6 <FingerPS_SetNewFingerPrint+0x9e>
 6b4:	b4 cf       	rjmp	.-152    	; 0x61e <FingerPS_SetNewFingerPrint+0x6>
	/*******************************************		Tempelate Storing			***********************************/
	RepeatStrTemp:
	FingerPS_strTemplate(address);
 6b6:	ce 01       	movw	r24, r28
 6b8:	0e 94 77 02 	call	0x4ee	; 0x4ee <FingerPS_strTemplate>
 6bc:	2f ef       	ldi	r18, 0xFF	; 255
 6be:	81 ee       	ldi	r24, 0xE1	; 225
 6c0:	94 e0       	ldi	r25, 0x04	; 4
 6c2:	21 50       	subi	r18, 0x01	; 1
 6c4:	80 40       	sbci	r24, 0x00	; 0
 6c6:	90 40       	sbci	r25, 0x00	; 0
 6c8:	e1 f7       	brne	.-8      	; 0x6c2 <FingerPS_SetNewFingerPrint+0xaa>
 6ca:	00 c0       	rjmp	.+0      	; 0x6cc <FingerPS_SetNewFingerPrint+0xb4>
 6cc:	00 00       	nop
	_delay_ms(100);
	if (FingerPS_CheckAck() == false) goto RepeatStrTemp;/*WAIT FOR ACK*/
 6ce:	0e 94 02 03 	call	0x604	; 0x604 <FingerPS_CheckAck>
 6d2:	88 23       	and	r24, r24
 6d4:	81 f3       	breq	.-32     	; 0x6b6 <FingerPS_SetNewFingerPrint+0x9e>
}
 6d6:	df 91       	pop	r29
 6d8:	cf 91       	pop	r28
 6da:	08 95       	ret

000006dc <FingerPS_CheckOneToOneMatch>:
u8 FingerPS_CheckOneToOneMatch(u16 address){
 6dc:	cf 93       	push	r28
 6de:	df 93       	push	r29
 6e0:	ec 01       	movw	r28, r24
	u8 match_result; 
	/*******************************************		Generate Image to check one to one match	********************/
	RepeatCheckImagGen:
	FingerPS_genImg();
 6e2:	0e 94 f3 01 	call	0x3e6	; 0x3e6 <FingerPS_genImg>
 6e6:	2f ef       	ldi	r18, 0xFF	; 255
 6e8:	81 ee       	ldi	r24, 0xE1	; 225
 6ea:	94 e0       	ldi	r25, 0x04	; 4
 6ec:	21 50       	subi	r18, 0x01	; 1
 6ee:	80 40       	sbci	r24, 0x00	; 0
 6f0:	90 40       	sbci	r25, 0x00	; 0
 6f2:	e1 f7       	brne	.-8      	; 0x6ec <FingerPS_CheckOneToOneMatch+0x10>
 6f4:	00 c0       	rjmp	.+0      	; 0x6f6 <FingerPS_CheckOneToOneMatch+0x1a>
 6f6:	00 00       	nop
	_delay_ms(100);
	if (FingerPS_CheckAck() == false) goto RepeatCheckImagGen; /*WAIT FOR ACK*/ 
 6f8:	0e 94 02 03 	call	0x604	; 0x604 <FingerPS_CheckAck>
 6fc:	88 23       	and	r24, r24
 6fe:	89 f3       	breq	.-30     	; 0x6e2 <FingerPS_CheckOneToOneMatch+0x6>
	/******************************************			Generate char from Check Image	****************************************/
	RepeatCharCheckFileGen:
	FingerPS_convertImg1CharFile();
 700:	0e 94 02 02 	call	0x404	; 0x404 <FingerPS_convertImg1CharFile>
 704:	2f ef       	ldi	r18, 0xFF	; 255
 706:	81 ee       	ldi	r24, 0xE1	; 225
 708:	94 e0       	ldi	r25, 0x04	; 4
 70a:	21 50       	subi	r18, 0x01	; 1
 70c:	80 40       	sbci	r24, 0x00	; 0
 70e:	90 40       	sbci	r25, 0x00	; 0
 710:	e1 f7       	brne	.-8      	; 0x70a <FingerPS_CheckOneToOneMatch+0x2e>
 712:	00 c0       	rjmp	.+0      	; 0x714 <FingerPS_CheckOneToOneMatch+0x38>
 714:	00 00       	nop
	_delay_ms(100);
	if (FingerPS_CheckAck() == false) goto RepeatCharCheckFileGen; /*WAIT FOR ACK*/
 716:	0e 94 02 03 	call	0x604	; 0x604 <FingerPS_CheckAck>
 71a:	88 23       	and	r24, r24
 71c:	89 f3       	breq	.-30     	; 0x700 <FingerPS_CheckOneToOneMatch+0x24>
	/******************************************			Load Char in char file 2	***********************************/
	RepeatLoadCharFile:
	FingerPS_LoadCharFile(address);
 71e:	ce 01       	movw	r24, r28
 720:	0e 94 97 02 	call	0x52e	; 0x52e <FingerPS_LoadCharFile>
 724:	2f ef       	ldi	r18, 0xFF	; 255
 726:	81 ee       	ldi	r24, 0xE1	; 225
 728:	94 e0       	ldi	r25, 0x04	; 4
 72a:	21 50       	subi	r18, 0x01	; 1
 72c:	80 40       	sbci	r24, 0x00	; 0
 72e:	90 40       	sbci	r25, 0x00	; 0
 730:	e1 f7       	brne	.-8      	; 0x72a <FingerPS_CheckOneToOneMatch+0x4e>
 732:	00 c0       	rjmp	.+0      	; 0x734 <FingerPS_CheckOneToOneMatch+0x58>
 734:	00 00       	nop
	_delay_ms(100);
	if (FingerPS_CheckAck() == false) goto RepeatLoadCharFile; /*Wait for ACK*/
 736:	0e 94 02 03 	call	0x604	; 0x604 <FingerPS_CheckAck>
 73a:	88 23       	and	r24, r24
 73c:	81 f3       	breq	.-32     	; 0x71e <FingerPS_CheckOneToOneMatch+0x42>
	/******************************************			CHECK MATCH				****************************************/
	FingerPS_match();
 73e:	0e 94 cd 02 	call	0x59a	; 0x59a <FingerPS_match>
 742:	2f ef       	ldi	r18, 0xFF	; 255
 744:	81 ee       	ldi	r24, 0xE1	; 225
 746:	94 e0       	ldi	r25, 0x04	; 4
 748:	21 50       	subi	r18, 0x01	; 1
 74a:	80 40       	sbci	r24, 0x00	; 0
 74c:	90 40       	sbci	r25, 0x00	; 0
 74e:	e1 f7       	brne	.-8      	; 0x748 <FingerPS_CheckOneToOneMatch+0x6c>
 750:	00 c0       	rjmp	.+0      	; 0x752 <FingerPS_CheckOneToOneMatch+0x76>
 752:	00 00       	nop
	_delay_ms(100); 
	if (AckPack[9] == 0x00){
 754:	80 91 b0 00 	lds	r24, 0x00B0	; 0x8000b0 <AckPack+0x9>
 758:	81 11       	cpse	r24, r1
 75a:	02 c0       	rjmp	.+4      	; 0x760 <FingerPS_CheckOneToOneMatch+0x84>
		match_result = MATCHED;
 75c:	81 e0       	ldi	r24, 0x01	; 1
 75e:	01 c0       	rjmp	.+2      	; 0x762 <FingerPS_CheckOneToOneMatch+0x86>
	}
	else {
		match_result = NOTMATCHED; 
 760:	80 e0       	ldi	r24, 0x00	; 0
	} 
	return match_result; 
}
 762:	df 91       	pop	r29
 764:	cf 91       	pop	r28
 766:	08 95       	ret

00000768 <M_DIO_Void_SetPinDirection>:
/*   FUNCTION BODY   */
/*--------------------------------------------------------------------------------------------*/
void M_DIO_Void_SetPinDirection(u8 Copy_U8_Number, u8 Copy_U8_State)
{

	u8 Local_U8_Bit    = Copy_U8_Number % 10;
 768:	9d ec       	ldi	r25, 0xCD	; 205
 76a:	89 9f       	mul	r24, r25
 76c:	91 2d       	mov	r25, r1
 76e:	11 24       	eor	r1, r1
 770:	29 2f       	mov	r18, r25
 772:	26 95       	lsr	r18
 774:	26 95       	lsr	r18
 776:	26 95       	lsr	r18
 778:	22 0f       	add	r18, r18
 77a:	32 2f       	mov	r19, r18
 77c:	33 0f       	add	r19, r19
 77e:	33 0f       	add	r19, r19
 780:	23 0f       	add	r18, r19
 782:	82 1b       	sub	r24, r18
 784:	28 2f       	mov	r18, r24
	u8 Local_U8_Group  = Copy_U8_Number / 10;
 786:	96 95       	lsr	r25
 788:	96 95       	lsr	r25
 78a:	96 95       	lsr	r25
	switch(Copy_U8_State)
 78c:	66 23       	and	r22, r22
 78e:	19 f0       	breq	.+6      	; 0x796 <M_DIO_Void_SetPinDirection+0x2e>
 790:	61 30       	cpi	r22, 0x01	; 1
 792:	e1 f1       	breq	.+120    	; 0x80c <__DATA_REGION_LENGTH__+0xc>
 794:	08 95       	ret
	{
	case INPUT:
		switch(Local_U8_Group)
 796:	92 30       	cpi	r25, 0x02	; 2
 798:	a9 f0       	breq	.+42     	; 0x7c4 <M_DIO_Void_SetPinDirection+0x5c>
 79a:	18 f4       	brcc	.+6      	; 0x7a2 <M_DIO_Void_SetPinDirection+0x3a>
 79c:	91 30       	cpi	r25, 0x01	; 1
 79e:	31 f0       	breq	.+12     	; 0x7ac <M_DIO_Void_SetPinDirection+0x44>
 7a0:	08 95       	ret
 7a2:	93 30       	cpi	r25, 0x03	; 3
 7a4:	d9 f0       	breq	.+54     	; 0x7dc <M_DIO_Void_SetPinDirection+0x74>
 7a6:	94 30       	cpi	r25, 0x04	; 4
 7a8:	29 f1       	breq	.+74     	; 0x7f4 <M_DIO_Void_SetPinDirection+0x8c>
 7aa:	08 95       	ret
		{
		case 1: CLR_BIT(DDRA_REG,Local_U8_Bit); break;
 7ac:	3a b3       	in	r19, 0x1a	; 26
 7ae:	81 e0       	ldi	r24, 0x01	; 1
 7b0:	90 e0       	ldi	r25, 0x00	; 0
 7b2:	02 c0       	rjmp	.+4      	; 0x7b8 <M_DIO_Void_SetPinDirection+0x50>
 7b4:	88 0f       	add	r24, r24
 7b6:	99 1f       	adc	r25, r25
 7b8:	2a 95       	dec	r18
 7ba:	e2 f7       	brpl	.-8      	; 0x7b4 <M_DIO_Void_SetPinDirection+0x4c>
 7bc:	80 95       	com	r24
 7be:	83 23       	and	r24, r19
 7c0:	8a bb       	out	0x1a, r24	; 26
 7c2:	08 95       	ret
		case 2: CLR_BIT(DDRB_REG,Local_U8_Bit); break;
 7c4:	37 b3       	in	r19, 0x17	; 23
 7c6:	81 e0       	ldi	r24, 0x01	; 1
 7c8:	90 e0       	ldi	r25, 0x00	; 0
 7ca:	02 c0       	rjmp	.+4      	; 0x7d0 <M_DIO_Void_SetPinDirection+0x68>
 7cc:	88 0f       	add	r24, r24
 7ce:	99 1f       	adc	r25, r25
 7d0:	2a 95       	dec	r18
 7d2:	e2 f7       	brpl	.-8      	; 0x7cc <M_DIO_Void_SetPinDirection+0x64>
 7d4:	80 95       	com	r24
 7d6:	83 23       	and	r24, r19
 7d8:	87 bb       	out	0x17, r24	; 23
 7da:	08 95       	ret
		case 3: CLR_BIT(DDRC_REG,Local_U8_Bit); break;
 7dc:	34 b3       	in	r19, 0x14	; 20
 7de:	81 e0       	ldi	r24, 0x01	; 1
 7e0:	90 e0       	ldi	r25, 0x00	; 0
 7e2:	02 c0       	rjmp	.+4      	; 0x7e8 <M_DIO_Void_SetPinDirection+0x80>
 7e4:	88 0f       	add	r24, r24
 7e6:	99 1f       	adc	r25, r25
 7e8:	2a 95       	dec	r18
 7ea:	e2 f7       	brpl	.-8      	; 0x7e4 <M_DIO_Void_SetPinDirection+0x7c>
 7ec:	80 95       	com	r24
 7ee:	83 23       	and	r24, r19
 7f0:	84 bb       	out	0x14, r24	; 20
 7f2:	08 95       	ret
		case 4: CLR_BIT(DDRD_REG,Local_U8_Bit); break;
 7f4:	31 b3       	in	r19, 0x11	; 17
 7f6:	81 e0       	ldi	r24, 0x01	; 1
 7f8:	90 e0       	ldi	r25, 0x00	; 0
 7fa:	02 c0       	rjmp	.+4      	; 0x800 <__DATA_REGION_LENGTH__>
 7fc:	88 0f       	add	r24, r24
 7fe:	99 1f       	adc	r25, r25
 800:	2a 95       	dec	r18
 802:	e2 f7       	brpl	.-8      	; 0x7fc <M_DIO_Void_SetPinDirection+0x94>
 804:	80 95       	com	r24
 806:	83 23       	and	r24, r19
 808:	81 bb       	out	0x11, r24	; 17
 80a:	08 95       	ret
		default:                                break;
		}
		break;
		case OUTPUT:
			switch(Local_U8_Group)
 80c:	92 30       	cpi	r25, 0x02	; 2
 80e:	a1 f0       	breq	.+40     	; 0x838 <__DATA_REGION_LENGTH__+0x38>
 810:	18 f4       	brcc	.+6      	; 0x818 <__DATA_REGION_LENGTH__+0x18>
 812:	91 30       	cpi	r25, 0x01	; 1
 814:	31 f0       	breq	.+12     	; 0x822 <__DATA_REGION_LENGTH__+0x22>
 816:	08 95       	ret
 818:	93 30       	cpi	r25, 0x03	; 3
 81a:	c9 f0       	breq	.+50     	; 0x84e <__DATA_REGION_LENGTH__+0x4e>
 81c:	94 30       	cpi	r25, 0x04	; 4
 81e:	11 f1       	breq	.+68     	; 0x864 <__stack+0x5>
 820:	08 95       	ret
			{
			case 1: SET_BIT(DDRA_REG,Local_U8_Bit); break;
 822:	3a b3       	in	r19, 0x1a	; 26
 824:	81 e0       	ldi	r24, 0x01	; 1
 826:	90 e0       	ldi	r25, 0x00	; 0
 828:	02 c0       	rjmp	.+4      	; 0x82e <__DATA_REGION_LENGTH__+0x2e>
 82a:	88 0f       	add	r24, r24
 82c:	99 1f       	adc	r25, r25
 82e:	2a 95       	dec	r18
 830:	e2 f7       	brpl	.-8      	; 0x82a <__DATA_REGION_LENGTH__+0x2a>
 832:	83 2b       	or	r24, r19
 834:	8a bb       	out	0x1a, r24	; 26
 836:	08 95       	ret
			case 2: SET_BIT(DDRB_REG,Local_U8_Bit); break;
 838:	37 b3       	in	r19, 0x17	; 23
 83a:	81 e0       	ldi	r24, 0x01	; 1
 83c:	90 e0       	ldi	r25, 0x00	; 0
 83e:	02 c0       	rjmp	.+4      	; 0x844 <__DATA_REGION_LENGTH__+0x44>
 840:	88 0f       	add	r24, r24
 842:	99 1f       	adc	r25, r25
 844:	2a 95       	dec	r18
 846:	e2 f7       	brpl	.-8      	; 0x840 <__DATA_REGION_LENGTH__+0x40>
 848:	83 2b       	or	r24, r19
 84a:	87 bb       	out	0x17, r24	; 23
 84c:	08 95       	ret
			case 3: SET_BIT(DDRC_REG,Local_U8_Bit); break;
 84e:	34 b3       	in	r19, 0x14	; 20
 850:	81 e0       	ldi	r24, 0x01	; 1
 852:	90 e0       	ldi	r25, 0x00	; 0
 854:	02 c0       	rjmp	.+4      	; 0x85a <__DATA_REGION_LENGTH__+0x5a>
 856:	88 0f       	add	r24, r24
 858:	99 1f       	adc	r25, r25
 85a:	2a 95       	dec	r18
 85c:	e2 f7       	brpl	.-8      	; 0x856 <__DATA_REGION_LENGTH__+0x56>
 85e:	83 2b       	or	r24, r19
 860:	84 bb       	out	0x14, r24	; 20
 862:	08 95       	ret
			case 4: SET_BIT(DDRD_REG,Local_U8_Bit); break;
 864:	31 b3       	in	r19, 0x11	; 17
 866:	81 e0       	ldi	r24, 0x01	; 1
 868:	90 e0       	ldi	r25, 0x00	; 0
 86a:	02 c0       	rjmp	.+4      	; 0x870 <__stack+0x11>
 86c:	88 0f       	add	r24, r24
 86e:	99 1f       	adc	r25, r25
 870:	2a 95       	dec	r18
 872:	e2 f7       	brpl	.-8      	; 0x86c <__stack+0xd>
 874:	83 2b       	or	r24, r19
 876:	81 bb       	out	0x11, r24	; 17
 878:	08 95       	ret

0000087a <M_DIO_Void_SetPinValue>:
/*--------------------------------------------------------------------------------------------*/
/*   FUNCTION BODY   */
/*--------------------------------------------------------------------------------------------*/
void M_DIO_Void_SetPinValue(u8 Copy_U8_Number, u8 Copy_U8_State)
{
	u8 Local_U8_Bit    = Copy_U8_Number % 10;
 87a:	9d ec       	ldi	r25, 0xCD	; 205
 87c:	89 9f       	mul	r24, r25
 87e:	91 2d       	mov	r25, r1
 880:	11 24       	eor	r1, r1
 882:	29 2f       	mov	r18, r25
 884:	26 95       	lsr	r18
 886:	26 95       	lsr	r18
 888:	26 95       	lsr	r18
 88a:	22 0f       	add	r18, r18
 88c:	32 2f       	mov	r19, r18
 88e:	33 0f       	add	r19, r19
 890:	33 0f       	add	r19, r19
 892:	23 0f       	add	r18, r19
 894:	82 1b       	sub	r24, r18
 896:	28 2f       	mov	r18, r24
	u8 Local_U8_Group  = Copy_U8_Number / 10;
 898:	96 95       	lsr	r25
 89a:	96 95       	lsr	r25
 89c:	96 95       	lsr	r25
	switch(Copy_U8_State)
 89e:	66 23       	and	r22, r22
 8a0:	19 f0       	breq	.+6      	; 0x8a8 <M_DIO_Void_SetPinValue+0x2e>
 8a2:	61 30       	cpi	r22, 0x01	; 1
 8a4:	e1 f1       	breq	.+120    	; 0x91e <M_DIO_Void_SetPinValue+0xa4>
 8a6:	08 95       	ret
	{
	case LOW:
		switch(Local_U8_Group)
 8a8:	92 30       	cpi	r25, 0x02	; 2
 8aa:	a9 f0       	breq	.+42     	; 0x8d6 <M_DIO_Void_SetPinValue+0x5c>
 8ac:	18 f4       	brcc	.+6      	; 0x8b4 <M_DIO_Void_SetPinValue+0x3a>
 8ae:	91 30       	cpi	r25, 0x01	; 1
 8b0:	31 f0       	breq	.+12     	; 0x8be <M_DIO_Void_SetPinValue+0x44>
 8b2:	08 95       	ret
 8b4:	93 30       	cpi	r25, 0x03	; 3
 8b6:	d9 f0       	breq	.+54     	; 0x8ee <M_DIO_Void_SetPinValue+0x74>
 8b8:	94 30       	cpi	r25, 0x04	; 4
 8ba:	29 f1       	breq	.+74     	; 0x906 <M_DIO_Void_SetPinValue+0x8c>
 8bc:	08 95       	ret
		{
		case 1: CLR_BIT(PORTA_REG,Local_U8_Bit); break;
 8be:	3b b3       	in	r19, 0x1b	; 27
 8c0:	81 e0       	ldi	r24, 0x01	; 1
 8c2:	90 e0       	ldi	r25, 0x00	; 0
 8c4:	02 c0       	rjmp	.+4      	; 0x8ca <M_DIO_Void_SetPinValue+0x50>
 8c6:	88 0f       	add	r24, r24
 8c8:	99 1f       	adc	r25, r25
 8ca:	2a 95       	dec	r18
 8cc:	e2 f7       	brpl	.-8      	; 0x8c6 <M_DIO_Void_SetPinValue+0x4c>
 8ce:	80 95       	com	r24
 8d0:	83 23       	and	r24, r19
 8d2:	8b bb       	out	0x1b, r24	; 27
 8d4:	08 95       	ret
		case 2: CLR_BIT(PORTB_REG,Local_U8_Bit); break;
 8d6:	38 b3       	in	r19, 0x18	; 24
 8d8:	81 e0       	ldi	r24, 0x01	; 1
 8da:	90 e0       	ldi	r25, 0x00	; 0
 8dc:	02 c0       	rjmp	.+4      	; 0x8e2 <M_DIO_Void_SetPinValue+0x68>
 8de:	88 0f       	add	r24, r24
 8e0:	99 1f       	adc	r25, r25
 8e2:	2a 95       	dec	r18
 8e4:	e2 f7       	brpl	.-8      	; 0x8de <M_DIO_Void_SetPinValue+0x64>
 8e6:	80 95       	com	r24
 8e8:	83 23       	and	r24, r19
 8ea:	88 bb       	out	0x18, r24	; 24
 8ec:	08 95       	ret
		case 3: CLR_BIT(PORTC_REG,Local_U8_Bit); break;
 8ee:	35 b3       	in	r19, 0x15	; 21
 8f0:	81 e0       	ldi	r24, 0x01	; 1
 8f2:	90 e0       	ldi	r25, 0x00	; 0
 8f4:	02 c0       	rjmp	.+4      	; 0x8fa <M_DIO_Void_SetPinValue+0x80>
 8f6:	88 0f       	add	r24, r24
 8f8:	99 1f       	adc	r25, r25
 8fa:	2a 95       	dec	r18
 8fc:	e2 f7       	brpl	.-8      	; 0x8f6 <M_DIO_Void_SetPinValue+0x7c>
 8fe:	80 95       	com	r24
 900:	83 23       	and	r24, r19
 902:	85 bb       	out	0x15, r24	; 21
 904:	08 95       	ret
		case 4: CLR_BIT(PORTD_REG,Local_U8_Bit); break;
 906:	32 b3       	in	r19, 0x12	; 18
 908:	81 e0       	ldi	r24, 0x01	; 1
 90a:	90 e0       	ldi	r25, 0x00	; 0
 90c:	02 c0       	rjmp	.+4      	; 0x912 <M_DIO_Void_SetPinValue+0x98>
 90e:	88 0f       	add	r24, r24
 910:	99 1f       	adc	r25, r25
 912:	2a 95       	dec	r18
 914:	e2 f7       	brpl	.-8      	; 0x90e <M_DIO_Void_SetPinValue+0x94>
 916:	80 95       	com	r24
 918:	83 23       	and	r24, r19
 91a:	82 bb       	out	0x12, r24	; 18
 91c:	08 95       	ret
		default:                                 break;
		}
		break;
		case HIGH:
			switch(Local_U8_Group)
 91e:	92 30       	cpi	r25, 0x02	; 2
 920:	a1 f0       	breq	.+40     	; 0x94a <M_DIO_Void_SetPinValue+0xd0>
 922:	18 f4       	brcc	.+6      	; 0x92a <M_DIO_Void_SetPinValue+0xb0>
 924:	91 30       	cpi	r25, 0x01	; 1
 926:	31 f0       	breq	.+12     	; 0x934 <M_DIO_Void_SetPinValue+0xba>
 928:	08 95       	ret
 92a:	93 30       	cpi	r25, 0x03	; 3
 92c:	c9 f0       	breq	.+50     	; 0x960 <M_DIO_Void_SetPinValue+0xe6>
 92e:	94 30       	cpi	r25, 0x04	; 4
 930:	11 f1       	breq	.+68     	; 0x976 <M_DIO_Void_SetPinValue+0xfc>
 932:	08 95       	ret
			{
			case 1: SET_BIT(PORTA_REG,Local_U8_Bit); break;
 934:	3b b3       	in	r19, 0x1b	; 27
 936:	81 e0       	ldi	r24, 0x01	; 1
 938:	90 e0       	ldi	r25, 0x00	; 0
 93a:	02 c0       	rjmp	.+4      	; 0x940 <M_DIO_Void_SetPinValue+0xc6>
 93c:	88 0f       	add	r24, r24
 93e:	99 1f       	adc	r25, r25
 940:	2a 95       	dec	r18
 942:	e2 f7       	brpl	.-8      	; 0x93c <M_DIO_Void_SetPinValue+0xc2>
 944:	83 2b       	or	r24, r19
 946:	8b bb       	out	0x1b, r24	; 27
 948:	08 95       	ret
			case 2: SET_BIT(PORTB_REG,Local_U8_Bit); break;
 94a:	38 b3       	in	r19, 0x18	; 24
 94c:	81 e0       	ldi	r24, 0x01	; 1
 94e:	90 e0       	ldi	r25, 0x00	; 0
 950:	02 c0       	rjmp	.+4      	; 0x956 <M_DIO_Void_SetPinValue+0xdc>
 952:	88 0f       	add	r24, r24
 954:	99 1f       	adc	r25, r25
 956:	2a 95       	dec	r18
 958:	e2 f7       	brpl	.-8      	; 0x952 <M_DIO_Void_SetPinValue+0xd8>
 95a:	83 2b       	or	r24, r19
 95c:	88 bb       	out	0x18, r24	; 24
 95e:	08 95       	ret
			case 3: SET_BIT(PORTC_REG,Local_U8_Bit); break;
 960:	35 b3       	in	r19, 0x15	; 21
 962:	81 e0       	ldi	r24, 0x01	; 1
 964:	90 e0       	ldi	r25, 0x00	; 0
 966:	02 c0       	rjmp	.+4      	; 0x96c <M_DIO_Void_SetPinValue+0xf2>
 968:	88 0f       	add	r24, r24
 96a:	99 1f       	adc	r25, r25
 96c:	2a 95       	dec	r18
 96e:	e2 f7       	brpl	.-8      	; 0x968 <M_DIO_Void_SetPinValue+0xee>
 970:	83 2b       	or	r24, r19
 972:	85 bb       	out	0x15, r24	; 21
 974:	08 95       	ret
			case 4: SET_BIT(PORTD_REG,Local_U8_Bit); break;
 976:	32 b3       	in	r19, 0x12	; 18
 978:	81 e0       	ldi	r24, 0x01	; 1
 97a:	90 e0       	ldi	r25, 0x00	; 0
 97c:	02 c0       	rjmp	.+4      	; 0x982 <M_DIO_Void_SetPinValue+0x108>
 97e:	88 0f       	add	r24, r24
 980:	99 1f       	adc	r25, r25
 982:	2a 95       	dec	r18
 984:	e2 f7       	brpl	.-8      	; 0x97e <M_DIO_Void_SetPinValue+0x104>
 986:	83 2b       	or	r24, r19
 988:	82 bb       	out	0x12, r24	; 18
 98a:	08 95       	ret

0000098c <UART_Init>:
/*THIS FUNCTION IS TO READ BYTE USING POLLING*/ 
	while (!GET_BIT(UCSRA,RXC)){
		/*WAIT UNTIL THE RECIEVER FLAG IS ONE*/
	}
	return (UDR);
}
 98c:	80 b5       	in	r24, 0x20	; 32
 98e:	8f 77       	andi	r24, 0x7F	; 127
 990:	80 bd       	out	0x20, r24	; 32
 992:	10 bc       	out	0x20, r1	; 32
 994:	80 e1       	ldi	r24, 0x10	; 16
 996:	89 b9       	out	0x09, r24	; 9
 998:	80 b5       	in	r24, 0x20	; 32
 99a:	80 bd       	out	0x20, r24	; 32
 99c:	88 e9       	ldi	r24, 0x98	; 152
 99e:	8a b9       	out	0x0a, r24	; 10
 9a0:	80 b5       	in	r24, 0x20	; 32
 9a2:	80 68       	ori	r24, 0x80	; 128
 9a4:	80 bd       	out	0x20, r24	; 32
 9a6:	86 e8       	ldi	r24, 0x86	; 134
 9a8:	80 bd       	out	0x20, r24	; 32
 9aa:	08 95       	ret

000009ac <UART_sendByte>:
 9ac:	5d 9b       	sbis	0x0b, 5	; 11
 9ae:	fe cf       	rjmp	.-4      	; 0x9ac <UART_sendByte>
 9b0:	8c b9       	out	0x0c, r24	; 12
 9b2:	5e 9b       	sbis	0x0b, 6	; 11
 9b4:	fe cf       	rjmp	.-4      	; 0x9b2 <UART_sendByte+0x6>
 9b6:	08 95       	ret

000009b8 <UART_receiveByteAsynchCallBack>:
void UART_receiveByteAsynchCallBack(void(*CpyPtr)(u8)){
	ptr_func = CpyPtr; 
 9b8:	90 93 b4 00 	sts	0x00B4, r25	; 0x8000b4 <ptr_func+0x1>
 9bc:	80 93 b3 00 	sts	0x00B3, r24	; 0x8000b3 <ptr_func>
 9c0:	08 95       	ret

000009c2 <__vector_13>:
} 
ISR(USART_RXC_vect){
 9c2:	1f 92       	push	r1
 9c4:	0f 92       	push	r0
 9c6:	0f b6       	in	r0, 0x3f	; 63
 9c8:	0f 92       	push	r0
 9ca:	11 24       	eor	r1, r1
 9cc:	2f 93       	push	r18
 9ce:	3f 93       	push	r19
 9d0:	4f 93       	push	r20
 9d2:	5f 93       	push	r21
 9d4:	6f 93       	push	r22
 9d6:	7f 93       	push	r23
 9d8:	8f 93       	push	r24
 9da:	9f 93       	push	r25
 9dc:	af 93       	push	r26
 9de:	bf 93       	push	r27
 9e0:	ef 93       	push	r30
 9e2:	ff 93       	push	r31
	ptr_func(UDR);
 9e4:	8c b1       	in	r24, 0x0c	; 12
 9e6:	e0 91 b3 00 	lds	r30, 0x00B3	; 0x8000b3 <ptr_func>
 9ea:	f0 91 b4 00 	lds	r31, 0x00B4	; 0x8000b4 <ptr_func+0x1>
 9ee:	09 95       	icall
}
 9f0:	ff 91       	pop	r31
 9f2:	ef 91       	pop	r30
 9f4:	bf 91       	pop	r27
 9f6:	af 91       	pop	r26
 9f8:	9f 91       	pop	r25
 9fa:	8f 91       	pop	r24
 9fc:	7f 91       	pop	r23
 9fe:	6f 91       	pop	r22
 a00:	5f 91       	pop	r21
 a02:	4f 91       	pop	r20
 a04:	3f 91       	pop	r19
 a06:	2f 91       	pop	r18
 a08:	0f 90       	pop	r0
 a0a:	0f be       	out	0x3f, r0	; 63
 a0c:	0f 90       	pop	r0
 a0e:	1f 90       	pop	r1
 a10:	18 95       	reti

00000a12 <_exit>:
 a12:	f8 94       	cli

00000a14 <__stop_program>:
 a14:	ff cf       	rjmp	.-2      	; 0xa14 <__stop_program>
